(lp0
S'poi'
p1
aS'salary'
p2
aS'bonus'
p3
aS'total_payments'
p4
aS'total_stock_value'
p5
aS'long_term_incentive'
p6
aS'restricted_stock'
p7
aS'exercised_stock_options'
p8
aS'fraction_from_poi'
p9
aS'fraction_to_poi'
p10
a.